; ModuleID = 'bench/g2o/original/laser_parameters.cpp.ll'
source_filename = "bench/g2o/original/laser_parameters.cpp.ll"
target datalayout = "e-m:e-p270:32:32-p271:32:32-p272:64:64-i64:64-i128:128-f80:128-n8:16:32:64-S128"
target triple = "x86_64-pc-linux-gnu"

@llvm.global_ctors = appending global [0 x { i32, ptr, ptr }] zeroinitializer

@_ZN3g2o15LaserParametersC1Eiiddddid = unnamed_addr alias void (ptr, i32, i32, double, double, double, double, i32, double), ptr @_ZN3g2o15LaserParametersC2Eiiddddid
@_ZN3g2o15LaserParametersC1Eidddd = unnamed_addr alias void (ptr, i32, double, double, double, double), ptr @_ZN3g2o15LaserParametersC2Eidddd

; Function Attrs: mustprogress nofree norecurse nosync nounwind willreturn memory(argmem: write) uwtable
define void @_ZN3g2o15LaserParametersC2Eiiddddid(ptr nocapture noundef nonnull writeonly align 16 dereferenceable(96) %0, i32 noundef %1, i32 noundef %2, double noundef %3, double noundef %4, double noundef %5, double noundef %6, i32 noundef %7, double noundef %8) unnamed_addr #0 align 2 {
  store double 0.000000e+00, ptr %0, align 16
  %10 = getelementptr inbounds nuw i8, ptr %0, i64 16
  %11 = getelementptr inbounds nuw i8, ptr %0, i64 32
  tail call void @llvm.memset.p0.i64(ptr noundef nonnull align 16 dereferenceable(16) %10, i8 0, i64 16, i1 false)
  store i32 %1, ptr %11, align 16
  %12 = getelementptr inbounds nuw i8, ptr %0, i64 40
  store double %3, ptr %12, align 8
  %13 = getelementptr inbounds nuw i8, ptr %0, i64 48
  %14 = sitofp i32 %2 to double
  %15 = fmul double %4, %14
  store double %15, ptr %13, align 16
  %16 = getelementptr inbounds nuw i8, ptr %0, i64 56
  store double %4, ptr %16, align 8
  %17 = getelementptr inbounds nuw i8, ptr %0, i64 64
  store double %6, ptr %17, align 16
  %18 = getelementptr inbounds nuw i8, ptr %0, i64 72
  store i32 %7, ptr %18, align 8
  %19 = getelementptr inbounds nuw i8, ptr %0, i64 80
  store double %5, ptr %19, align 16
  %20 = getelementptr inbounds nuw i8, ptr %0, i64 88
  store double %8, ptr %20, align 8
  ret void
}

; Function Attrs: mustprogress nofree norecurse nosync nounwind willreturn memory(argmem: write) uwtable
define void @_ZN3g2o15LaserParametersC2Eidddd(ptr nocapture noundef nonnull writeonly align 16 dereferenceable(96) %0, i32 noundef %1, double noundef %2, double noundef %3, double noundef %4, double noundef %5) unnamed_addr #0 align 2 {
  store double 0.000000e+00, ptr %0, align 16
  %7 = getelementptr inbounds nuw i8, ptr %0, i64 16
  %8 = getelementptr inbounds nuw i8, ptr %0, i64 40
  tail call void @llvm.memset.p0.i64(ptr noundef nonnull align 16 dereferenceable(20) %7, i8 0, i64 20, i1 false)
  store double %2, ptr %8, align 8
  %9 = getelementptr inbounds nuw i8, ptr %0, i64 48
  %10 = sitofp i32 %1 to double
  %11 = fmul double %3, %10
  store double %11, ptr %9, align 16
  %12 = getelementptr inbounds nuw i8, ptr %0, i64 56
  store double %3, ptr %12, align 8
  %13 = getelementptr inbounds nuw i8, ptr %0, i64 64
  store double 1.000000e-01, ptr %13, align 16
  %14 = getelementptr inbounds nuw i8, ptr %0, i64 72
  store i32 0, ptr %14, align 8
  %15 = getelementptr inbounds nuw i8, ptr %0, i64 80
  store double %4, ptr %15, align 16
  %16 = getelementptr inbounds nuw i8, ptr %0, i64 88
  store double %5, ptr %16, align 8
  ret void
}

; Function Attrs: nocallback nofree nounwind willreturn memory(argmem: write)
declare void @llvm.memset.p0.i64(ptr nocapture writeonly, i8, i64, i1 immarg) #1


!llvm.module.flags = !{!0, !1, !2, !3}

!0 = !{i32 1, !"wchar_size", i32 4}
!1 = !{i32 8, !"PIC Level", i32 2}
!2 = !{i32 7, !"uwtable", i32 2}
!3 = !{i32 7, !"frame-pointer", i32 2}
